target datalayout = "e-m:e-p270:32:32-p271:32:32-p272:64:64-i64:64-i128:128-f80:128-n8:16:32:64-S128"
target triple = "x86_64-pc-linux-gnu"

%"class.duckdb::MetadataManager" = type { ptr, ptr, %"class.std::unordered_map", %"class.std::unordered_map.2" }
%"class.std::unordered_map" = type { %"class.std::_Hashtable" }
%"class.std::_Hashtable" = type { ptr, i64, %"struct.std::__detail::_Hash_node_base", i64, %"struct.std::__detail::_Prime_rehash_policy", ptr }
%"struct.std::__detail::_Hash_node_base" = type { ptr }
%"struct.std::__detail::_Prime_rehash_policy" = type { float, i64 }
%"class.std::unordered_map.2" = type { %"class.std::_Hashtable.3" }
%"class.std::_Hashtable.3" = type { ptr, i64, %"struct.std::__detail::_Hash_node_base", i64, %"struct.std::__detail::_Prime_rehash_policy", ptr }
%"class.std::mutex" = type { %"class.std::__mutex_base" }
%"class.std::__mutex_base" = type { %union.pthread_mutex_t }
%union.pthread_mutex_t = type { %struct.__pthread_mutex_s }
%struct.__pthread_mutex_s = type { i32, i32, i32, i32, i32, i16, i16, %struct.__pthread_internal_list }
%struct.__pthread_internal_list = type { ptr, ptr }
%"class.duckdb::BlockManager" = type { ptr, ptr, %"class.std::mutex", %"class.std::unordered_map.16", %"class.duckdb::unique_ptr", %"class.duckdb::optional_idx" }
%"class.std::unordered_map.16" = type { %"class.std::_Hashtable.17" }
%"class.std::_Hashtable.17" = type { ptr, i64, %"struct.std::__detail::_Hash_node_base", i64, %"struct.std::__detail::_Prime_rehash_policy", ptr }
%"class.duckdb::unique_ptr" = type { %"class.std::unique_ptr" }
%"class.std::unique_ptr" = type { %"struct.std::__uniq_ptr_data" }
%"struct.std::__uniq_ptr_data" = type { %"class.std::__uniq_ptr_impl" }
%"class.std::__uniq_ptr_impl" = type { %"class.std::tuple" }
%"class.std::tuple" = type { %"struct.std::_Tuple_impl" }
%"struct.std::_Tuple_impl" = type { %"struct.std::_Head_base.31" }
%"struct.std::_Head_base.31" = type { ptr }
%"class.duckdb::optional_idx" = type { i64 }
%"struct.duckdb::MetaBlockPointer" = type { i64, i32, i32 }
%"struct.duckdb::BlockPointer" = type { i64, i32, i32 }
%"class.duckdb::optional_ptr.85" = type { ptr }

; Function Attrs: mustprogress nounwind uwtable
define linkonce_odr noundef i32 @_ZN6duckdb17UnsafeNumericCastIjmvEET_T0_(i64 noundef %0) #0 comdat {
  %2 = alloca i64, align 8
  store i64 %0, ptr %2, align 8, !tbaa !16
  %3 = load i64, ptr %2, align 8, !tbaa !16
  %4 = trunc i64 %3 to i32
  ret i32 %4
}

; Function Attrs: mustprogress nounwind uwtable
define linkonce_odr void @_ZN6duckdb16MetaBlockPointerC2Ev(ptr noundef nonnull align 8 dereferenceable(16) %0) unnamed_addr #0 comdat align 2 {
  %2 = alloca ptr, align 8
  store ptr %0, ptr %2, align 8, !tbaa !125
  %3 = load ptr, ptr %2, align 8
  %4 = getelementptr inbounds nuw %"struct.duckdb::MetaBlockPointer", ptr %3, i32 0, i32 0
  store i64 -1, ptr %4, align 8, !tbaa !127
  %5 = getelementptr inbounds nuw %"struct.duckdb::MetaBlockPointer", ptr %3, i32 0, i32 1
  store i32 0, ptr %5, align 8, !tbaa !129
  %6 = getelementptr inbounds nuw %"struct.duckdb::MetaBlockPointer", ptr %3, i32 0, i32 2
  store i32 0, ptr %6, align 4, !tbaa !130
  ret void
}

; Function Attrs: mustprogress nounwind uwtable
define linkonce_odr noundef zeroext i1 @_ZNK6duckdb12BlockPointer7IsValidEv(ptr noundef nonnull align 8 dereferenceable(16) %0) #0 comdat align 2 {
  %2 = alloca ptr, align 8
  store ptr %0, ptr %2, align 8, !tbaa !135
  %3 = load ptr, ptr %2, align 8
  %4 = getelementptr inbounds nuw %"struct.duckdb::BlockPointer", ptr %3, i32 0, i32 0
  %5 = load i64, ptr %4, align 8, !tbaa !132
  %6 = icmp ne i64 %5, -1
  ret i1 %6
}

; Function Attrs: inlinehint mustprogress nounwind uwtable
define linkonce_odr noundef i64 @_ZN6duckdb15AlignValueFloorImTnT_Lm8EEES1_S1_(i64 noundef %0) #1 comdat {
  %2 = alloca i64, align 8
  store i64 %0, ptr %2, align 8, !tbaa !16
  %3 = load i64, ptr %2, align 8, !tbaa !16
  %4 = udiv i64 %3, 8
  %5 = mul i64 %4, 8
  ret i64 %5
}

; Function Attrs: inlinehint mustprogress uwtable
define linkonce_odr noundef i64 @_ZNK6duckdb12BlockManager12GetBlockSizeEv(ptr noundef nonnull align 8 dereferenceable(128) %0) #4 comdat align 2 {
  %2 = alloca ptr, align 8
  store ptr %0, ptr %2, align 8, !tbaa !8
  %3 = load ptr, ptr %2, align 8
  %4 = getelementptr inbounds nuw %"class.duckdb::BlockManager", ptr %3, i32 0, i32 5
  %5 = call noundef i64 @_ZNK6duckdb12optional_idx8GetIndexEv(ptr noundef nonnull align 8 dereferenceable(8) %4)
  %6 = sub i64 %5, 8
  ret i64 %6
}

; Function Attrs: mustprogress nounwind uwtable
define linkonce_odr void @_ZN6duckdb12optional_ptrINS_6vectorINS_16MetaBlockPointerELb1EEELb1EEC2EPS3_(ptr noundef nonnull align 8 dereferenceable(8) %0, ptr noundef %1) unnamed_addr #0 comdat align 2 {
  %3 = alloca ptr, align 8
  %4 = alloca ptr, align 8
  store ptr %0, ptr %3, align 8, !tbaa !221
  store ptr %1, ptr %4, align 8, !tbaa !158
  %5 = load ptr, ptr %3, align 8
  %6 = getelementptr inbounds nuw %"class.duckdb::optional_ptr.85", ptr %5, i32 0, i32 0
  %7 = load ptr, ptr %4, align 8, !tbaa !158
  store ptr %7, ptr %6, align 8, !tbaa !223
  ret void
}

; Function Attrs: mustprogress uwtable
define { i64, i64 } @_ZN6duckdb15MetadataManager16FromBlockPointerENS_12BlockPointerEm(i64 %0, i64 %1, i64 noundef %2) #2 align 2 {
  %4 = alloca %"struct.duckdb::MetaBlockPointer", align 8
  %5 = alloca %"struct.duckdb::BlockPointer", align 8
  %6 = alloca i64, align 8
  %7 = alloca i64, align 8
  %8 = alloca i64, align 8
  %9 = getelementptr inbounds nuw { i64, i64 }, ptr %5, i32 0, i32 0
  store i64 %0, ptr %9, align 8
  %10 = getelementptr inbounds nuw { i64, i64 }, ptr %5, i32 0, i32 1
  store i64 %1, ptr %10, align 8
  store i64 %2, ptr %6, align 8, !tbaa !16
  %11 = call noundef zeroext i1 @_ZNK6duckdb12BlockPointer7IsValidEv(ptr noundef nonnull align 8 dereferenceable(16) %5)
  br i1 %11, label %13, label %12

12:                                               ; preds = %3
  call void @_ZN6duckdb16MetaBlockPointerC2Ev(ptr noundef nonnull align 8 dereferenceable(16) %4)
  br label %33

13:                                               ; preds = %3
  call void @llvm.lifetime.start.p0(i64 8, ptr %7) #19
  %14 = getelementptr inbounds nuw %"struct.duckdb::BlockPointer", ptr %5, i32 0, i32 1
  %15 = load i32, ptr %14, align 8, !tbaa !134
  %16 = zext i32 %15 to i64
  %17 = load i64, ptr %6, align 8, !tbaa !16
  %18 = udiv i64 %16, %17
  store i64 %18, ptr %7, align 8, !tbaa !16
  call void @llvm.lifetime.start.p0(i64 8, ptr %8) #19
  %19 = getelementptr inbounds nuw %"struct.duckdb::BlockPointer", ptr %5, i32 0, i32 1
  %20 = load i32, ptr %19, align 8, !tbaa !134
  %21 = zext i32 %20 to i64
  %22 = load i64, ptr %6, align 8, !tbaa !16
  %23 = urem i64 %21, %22
  store i64 %23, ptr %8, align 8, !tbaa !16
  call void @_ZN6duckdb16MetaBlockPointerC2Ev(ptr noundef nonnull align 8 dereferenceable(16) %4)
  %24 = getelementptr inbounds nuw %"struct.duckdb::BlockPointer", ptr %5, i32 0, i32 0
  %25 = load i64, ptr %24, align 8, !tbaa !132
  %26 = load i64, ptr %7, align 8, !tbaa !16
  %27 = shl i64 %26, 56
  %28 = or i64 %25, %27
  %29 = getelementptr inbounds nuw %"struct.duckdb::MetaBlockPointer", ptr %4, i32 0, i32 0
  store i64 %28, ptr %29, align 8, !tbaa !127
  %30 = load i64, ptr %8, align 8, !tbaa !16
  %31 = call noundef i32 @_ZN6duckdb17UnsafeNumericCastIjmvEET_T0_(i64 noundef %30)
  %32 = getelementptr inbounds nuw %"struct.duckdb::MetaBlockPointer", ptr %4, i32 0, i32 1
  store i32 %31, ptr %32, align 8, !tbaa !129
  call void @llvm.lifetime.end.p0(i64 8, ptr %8) #19
  call void @llvm.lifetime.end.p0(i64 8, ptr %7) #19
  br label %33

33:                                               ; preds = %13, %12
  %34 = load { i64, i64 }, ptr %4, align 8
  ret { i64, i64 } %34
}

; Function Attrs: mustprogress uwtable
define noundef i64 @_ZNK6duckdb15MetadataManager20GetMetadataBlockSizeEv(ptr noundef nonnull align 8 dereferenceable(128) %0) #2 align 2 {
  %2 = alloca ptr, align 8
  store ptr %0, ptr %2, align 8, !tbaa !3
  %3 = load ptr, ptr %2, align 8
  %4 = getelementptr inbounds nuw %"class.duckdb::MetadataManager", ptr %3, i32 0, i32 0
  %5 = load ptr, ptr %4, align 8, !tbaa !47
  %6 = call noundef i64 @_ZNK6duckdb12BlockManager12GetBlockSizeEv(ptr noundef nonnull align 8 dereferenceable(128) %5)
  %7 = udiv i64 %6, 64
  %8 = call noundef i64 @_ZN6duckdb15AlignValueFloorImTnT_Lm8EEES1_S1_(i64 noundef %7)
  ret i64 %8
}

; Function Attrs: mustprogress uwtable
define void @_ZN6duckdb14MetadataReaderC2ERNS_15MetadataManagerENS_12BlockPointerE(ptr noundef nonnull align 8 dereferenceable(112) %0, ptr noundef nonnull align 8 dereferenceable(128) %1, i64 %2, i64 %3) unnamed_addr #2 align 2 {
  %5 = alloca %"struct.duckdb::BlockPointer", align 8
  %6 = alloca ptr, align 8
  %7 = alloca ptr, align 8
  %8 = alloca %"struct.duckdb::MetaBlockPointer", align 8
  %9 = alloca %"struct.duckdb::BlockPointer", align 8
  %10 = alloca %"class.duckdb::optional_ptr.85", align 8
  %11 = getelementptr inbounds nuw { i64, i64 }, ptr %5, i32 0, i32 0
  store i64 %2, ptr %11, align 8
  %12 = getelementptr inbounds nuw { i64, i64 }, ptr %5, i32 0, i32 1
  store i64 %3, ptr %12, align 8
  store ptr %0, ptr %6, align 8, !tbaa !202
  store ptr %1, ptr %7, align 8, !tbaa !3
  %13 = load ptr, ptr %6, align 8
  %14 = load ptr, ptr %7, align 8, !tbaa !3
  call void @llvm.memcpy.p0.p0.i64(ptr align 8 %9, ptr align 8 %5, i64 16, i1 false), !tbaa.struct !131
  %15 = load ptr, ptr %7, align 8, !tbaa !3
  %16 = call noundef i64 @_ZNK6duckdb15MetadataManager20GetMetadataBlockSizeEv(ptr noundef nonnull align 8 dereferenceable(128) %15)
  %17 = getelementptr inbounds nuw { i64, i64 }, ptr %9, i32 0, i32 0
  %18 = load i64, ptr %17, align 8
  %19 = getelementptr inbounds nuw { i64, i64 }, ptr %9, i32 0, i32 1
  %20 = load i64, ptr %19, align 8
  %21 = call { i64, i64 } @_ZN6duckdb15MetadataManager16FromBlockPointerENS_12BlockPointerEm(i64 %18, i64 %20, i64 noundef %16)
  %22 = getelementptr inbounds nuw { i64, i64 }, ptr %8, i32 0, i32 0
  %23 = extractvalue { i64, i64 } %21, 0
  store i64 %23, ptr %22, align 8
  %24 = getelementptr inbounds nuw { i64, i64 }, ptr %8, i32 0, i32 1
  %25 = extractvalue { i64, i64 } %21, 1
  store i64 %25, ptr %24, align 8
  call void @_ZN6duckdb12optional_ptrINS_6vectorINS_16MetaBlockPointerELb1EEELb1EEC2EPS3_(ptr noundef nonnull align 8 dereferenceable(8) %10, ptr noundef null)
  %26 = getelementptr inbounds nuw { i64, i64 }, ptr %8, i32 0, i32 0
  %27 = load i64, ptr %26, align 8
  %28 = getelementptr inbounds nuw { i64, i64 }, ptr %8, i32 0, i32 1
  %29 = load i64, ptr %28, align 8
  %30 = getelementptr inbounds nuw %"class.duckdb::optional_ptr.85", ptr %10, i32 0, i32 0
  %31 = load ptr, ptr %30, align 8
  call void @_ZN6duckdb14MetadataReaderC2ERNS_15MetadataManagerENS_16MetaBlockPointerENS_12optional_ptrINS_6vectorIS3_Lb1EEELb1EEENS_15BlockReaderTypeE(ptr noundef nonnull align 8 dereferenceable(112) %13, ptr noundef nonnull align 8 dereferenceable(128) %14, i64 %27, i64 %29, ptr %31, i32 noundef 0)
  ret void
}