; Function Attrs: mustprogress uwtable
define void @_ZN6duckdb14MetadataReaderC2ERNS_15MetadataManagerENS_12BlockPointerE(ptr noundef nonnull align 8 dereferenceable(112) initializes((0, 20)) %0, ptr noundef nonnull align 8 dereferenceable(128) %1, i64 %2, i64 %3) unnamed_addr #2 align 2 {
  %5 = load ptr, ptr %1, align 8, !tbaa !43
  %6 = getelementptr inbounds nuw i8, ptr %5, i64 120
  %7 = tail call noundef i64 @_ZNK6duckdb12optional_idx8GetIndexEv(ptr noundef nonnull align 8 dereferenceable(8) %6)
  %.not.i = icmp eq i64 %2, -1
  br i1 %.not.i, label %_ZN6duckdb15MetadataManager16FromBlockPointerENS_12BlockPointerEm.exit, label %8

8:                                                ; preds = %4
  %9 = add i64 %7, -8
  %10 = lshr i64 %9, 6
  %11 = and i64 %10, 288230376151711736
  %12 = and i64 %3, 4294967295
  %13 = udiv i64 %12, %11
  %14 = urem i64 %12, %11
  %15 = shl i64 %13, 56
  %16 = or i64 %15, %2
  br label %_ZN6duckdb15MetadataManager16FromBlockPointerENS_12BlockPointerEm.exit

_ZN6duckdb15MetadataManager16FromBlockPointerENS_12BlockPointerEm.exit: ; preds = %4, %8
  %.sroa.05.0.i = phi i64 [ %16, %8 ], [ -1, %4 ]
  %.sroa.4.0.i = phi i64 [ %14, %8 ], [ 0, %4 ]
  tail call void @_ZN6duckdb14MetadataReaderC2ERNS_15MetadataManagerENS_16MetaBlockPointerENS_12optional_ptrINS_6vectorIS3_Lb1EEELb1EEENS_15BlockReaderTypeE(ptr noundef nonnull align 8 dereferenceable(112) %0, ptr noundef nonnull align 8 dereferenceable(128) %1, i64 %.sroa.05.0.i, i64 %.sroa.4.0.i, ptr null, i32 noundef 0)
  ret void
}